target datalayout = "e-m:e-p270:32:32-p271:32:32-p272:64:64-i64:64-i128:128-f80:128-n8:16:32:64-S128"
target triple = "x86_64-unknown-linux-gnu"

%"class.llvh::StringRef" = type { ptr, i64 }
%"class.llvh::sys::path::reverse_iterator" = type <{ %"class.llvh::StringRef", %"class.llvh::StringRef", i64, i32, [4 x i8] }>

; Function Attrs: mustprogress nounwind uwtable
define linkonce_odr hidden noundef ptr @_ZNK4llvh9StringRef5beginEv(ptr noundef nonnull align 8 dereferenceable(16) %this) #0 comdat align 2 {
entry:
  %this.addr = alloca ptr, align 8
  store ptr %this, ptr %this.addr, align 8
  %this1 = load ptr, ptr %this.addr, align 8
  %Data = getelementptr inbounds %"class.llvh::StringRef", ptr %this1, i32 0, i32 0
  %0 = load ptr, ptr %Data, align 8
  ret ptr %0
}

; Function Attrs: mustprogress nounwind uwtable
define hidden noundef zeroext i1 @_ZNK4llvh3sys4path16reverse_iteratoreqERKS2_(ptr noundef nonnull align 8 dereferenceable(44) %this, ptr noundef nonnull align 8 dereferenceable(44) %RHS) #0 align 2 {
entry:
  %retval.i.i = alloca i32, align 4
  %Lhs.addr.i.i = alloca ptr, align 8
  %Rhs.addr.i.i = alloca ptr, align 8
  %Length.addr.i.i = alloca i64, align 8
  %RHS.i9 = alloca %"class.llvh::StringRef", align 8
  %this.addr.i = alloca ptr, align 8
  %LHS.i = alloca %"class.llvh::StringRef", align 8
  %RHS.i = alloca %"class.llvh::StringRef", align 8
  %agg.tmp.i = alloca %"class.llvh::StringRef", align 8
  %this.addr = alloca ptr, align 8
  %RHS.addr = alloca ptr, align 8
  %agg.tmp = alloca %"class.llvh::StringRef", align 8
  %agg.tmp4 = alloca %"class.llvh::StringRef", align 8
  store ptr %this, ptr %this.addr, align 8
  store ptr %RHS, ptr %RHS.addr, align 8
  %this1 = load ptr, ptr %this.addr, align 8
  %Path = getelementptr inbounds %"class.llvh::sys::path::reverse_iterator", ptr %this1, i32 0, i32 0
  %call = call noundef ptr @_ZNK4llvh9StringRef5beginEv(ptr noundef nonnull align 8 dereferenceable(16) %Path)
  %0 = load ptr, ptr %RHS.addr, align 8
  %Path2 = getelementptr inbounds %"class.llvh::sys::path::reverse_iterator", ptr %0, i32 0, i32 0
  %call3 = call noundef ptr @_ZNK4llvh9StringRef5beginEv(ptr noundef nonnull align 8 dereferenceable(16) %Path2)
  %cmp = icmp eq ptr %call, %call3
  br i1 %cmp, label %land.lhs.true, label %land.end

land.lhs.true:                                    ; preds = %entry
  %Component = getelementptr inbounds %"class.llvh::sys::path::reverse_iterator", ptr %this1, i32 0, i32 1
  call void @llvm.memcpy.p0.p0.i64(ptr align 8 %agg.tmp, ptr align 8 %Component, i64 16, i1 false)
  %1 = load ptr, ptr %RHS.addr, align 8
  %Component5 = getelementptr inbounds %"class.llvh::sys::path::reverse_iterator", ptr %1, i32 0, i32 1
  call void @llvm.memcpy.p0.p0.i64(ptr align 8 %agg.tmp4, ptr align 8 %Component5, i64 16, i1 false)
  %2 = getelementptr inbounds { ptr, i64 }, ptr %agg.tmp, i32 0, i32 0
  %3 = load ptr, ptr %2, align 8
  %4 = getelementptr inbounds { ptr, i64 }, ptr %agg.tmp, i32 0, i32 1
  %5 = load i64, ptr %4, align 8
  %6 = getelementptr inbounds { ptr, i64 }, ptr %agg.tmp4, i32 0, i32 0
  %7 = load ptr, ptr %6, align 8
  %8 = getelementptr inbounds { ptr, i64 }, ptr %agg.tmp4, i32 0, i32 1
  %9 = load i64, ptr %8, align 8
  store ptr %3, ptr %LHS.i, align 8
  %10 = getelementptr inbounds { ptr, i64 }, ptr %LHS.i, i32 0, i32 1
  store i64 %5, ptr %10, align 8
  store ptr %7, ptr %RHS.i, align 8
  %11 = getelementptr inbounds { ptr, i64 }, ptr %RHS.i, i32 0, i32 1
  store i64 %9, ptr %11, align 8
  call void @llvm.memcpy.p0.p0.i64(ptr align 8 %agg.tmp.i, ptr align 8 %RHS.i, i64 16, i1 false)
  %12 = load ptr, ptr %agg.tmp.i, align 8
  %13 = getelementptr inbounds { ptr, i64 }, ptr %agg.tmp.i, i32 0, i32 1
  %14 = load i64, ptr %13, align 8
  store ptr %12, ptr %RHS.i9, align 8
  %15 = getelementptr inbounds { ptr, i64 }, ptr %RHS.i9, i32 0, i32 1
  store i64 %14, ptr %15, align 8
  store ptr %LHS.i, ptr %this.addr.i, align 8
  %this1.i = load ptr, ptr %this.addr.i, align 8
  %Length.i = getelementptr inbounds %"class.llvh::StringRef", ptr %this1.i, i32 0, i32 1
  %16 = load i64, ptr %Length.i, align 8
  %Length2.i = getelementptr inbounds %"class.llvh::StringRef", ptr %RHS.i9, i32 0, i32 1
  %17 = load i64, ptr %Length2.i, align 8
  %cmp.i = icmp eq i64 %16, %17
  br i1 %cmp.i, label %land.rhs.i, label %_ZNK4llvh9StringRef6equalsES0_.exit

land.rhs.i:                                       ; preds = %land.lhs.true
  %18 = load ptr, ptr %this1.i, align 8
  %19 = load ptr, ptr %RHS.i9, align 8
  %Length4.i = getelementptr inbounds %"class.llvh::StringRef", ptr %RHS.i9, i32 0, i32 1
  %20 = load i64, ptr %Length4.i, align 8
  store ptr %18, ptr %Lhs.addr.i.i, align 8
  store ptr %19, ptr %Rhs.addr.i.i, align 8
  store i64 %20, ptr %Length.addr.i.i, align 8
  %21 = load i64, ptr %Length.addr.i.i, align 8
  %cmp.i.i = icmp eq i64 %21, 0
  br i1 %cmp.i.i, label %if.then.i.i, label %if.end.i.i

if.then.i.i:                                      ; preds = %land.rhs.i
  store i32 0, ptr %retval.i.i, align 4
  br label %_ZN4llvh9StringRef13compareMemoryEPKcS2_m.exit.i

if.end.i.i:                                       ; preds = %land.rhs.i
  %22 = load ptr, ptr %Lhs.addr.i.i, align 8
  %23 = load ptr, ptr %Rhs.addr.i.i, align 8
  %24 = load i64, ptr %Length.addr.i.i, align 8
  %call.i.i = call i32 @memcmp(ptr noundef %22, ptr noundef %23, i64 noundef %24) #12
  store i32 %call.i.i, ptr %retval.i.i, align 4
  br label %_ZN4llvh9StringRef13compareMemoryEPKcS2_m.exit.i

_ZN4llvh9StringRef13compareMemoryEPKcS2_m.exit.i: ; preds = %if.end.i.i, %if.then.i.i
  %25 = load i32, ptr %retval.i.i, align 4
  %cmp5.i = icmp eq i32 %25, 0
  br label %_ZNK4llvh9StringRef6equalsES0_.exit

_ZNK4llvh9StringRef6equalsES0_.exit:              ; preds = %_ZN4llvh9StringRef13compareMemoryEPKcS2_m.exit.i, %land.lhs.true
  %26 = phi i1 [ false, %land.lhs.true ], [ %cmp5.i, %_ZN4llvh9StringRef13compareMemoryEPKcS2_m.exit.i ]
  br i1 %26, label %land.rhs, label %land.end

land.rhs:                                         ; preds = %_ZNK4llvh9StringRef6equalsES0_.exit
  %Position = getelementptr inbounds %"class.llvh::sys::path::reverse_iterator", ptr %this1, i32 0, i32 2
  %27 = load i64, ptr %Position, align 8
  %28 = load ptr, ptr %RHS.addr, align 8
  %Position7 = getelementptr inbounds %"class.llvh::sys::path::reverse_iterator", ptr %28, i32 0, i32 2
  %29 = load i64, ptr %Position7, align 8
  %cmp8 = icmp eq i64 %27, %29
  br label %land.end

land.end:                                         ; preds = %land.rhs, %_ZNK4llvh9StringRef6equalsES0_.exit, %entry
  %30 = phi i1 [ false, %_ZNK4llvh9StringRef6equalsES0_.exit ], [ false, %entry ], [ %cmp8, %land.rhs ]
  ret i1 %30
}