; Function Attrs: mustprogress nofree nounwind willreturn memory(read, inaccessiblemem: none) uwtable
define hidden noundef zeroext i1 @_ZNK4llvh3sys4path16reverse_iteratoreqERKS2_(ptr nocapture noundef nonnull readonly align 8 dereferenceable(44) %this, ptr nocapture noundef nonnull readonly align 8 dereferenceable(44) %RHS) local_unnamed_addr #7 align 2 {
entry:
  %0 = load ptr, ptr %this, align 8
  %1 = load ptr, ptr %RHS, align 8
  %cmp = icmp eq ptr %0, %1
  br i1 %cmp, label %land.lhs.true, label %land.end

land.lhs.true:                                    ; preds = %entry
  %Component = getelementptr inbounds i8, ptr %this, i64 16
  %agg.tmp.sroa.0.0.copyload = load ptr, ptr %Component, align 8
  %agg.tmp.sroa.2.0.Component.sroa_idx = getelementptr inbounds i8, ptr %this, i64 24
  %agg.tmp.sroa.2.0.copyload = load i64, ptr %agg.tmp.sroa.2.0.Component.sroa_idx, align 8
  %Component5 = getelementptr inbounds i8, ptr %RHS, i64 16
  %agg.tmp4.sroa.0.0.copyload = load ptr, ptr %Component5, align 8
  %agg.tmp4.sroa.2.0.Component5.sroa_idx = getelementptr inbounds i8, ptr %RHS, i64 24
  %agg.tmp4.sroa.2.0.copyload = load i64, ptr %agg.tmp4.sroa.2.0.Component5.sroa_idx, align 8
  %cmp.i = icmp eq i64 %agg.tmp.sroa.2.0.copyload, %agg.tmp4.sroa.2.0.copyload
  br i1 %cmp.i, label %land.rhs.i, label %land.end

land.rhs.i:                                       ; preds = %land.lhs.true
  %cmp.i.i = icmp eq i64 %agg.tmp.sroa.2.0.copyload, 0
  br i1 %cmp.i.i, label %land.rhs, label %if.end.i.i

if.end.i.i:                                       ; preds = %land.rhs.i
  %bcmp = tail call i32 @bcmp(ptr %agg.tmp.sroa.0.0.copyload, ptr %agg.tmp4.sroa.0.0.copyload, i64 %agg.tmp.sroa.2.0.copyload)
  %2 = icmp eq i32 %bcmp, 0
  br i1 %2, label %land.rhs, label %land.end

land.rhs:                                         ; preds = %land.rhs.i, %if.end.i.i
  %Position = getelementptr inbounds i8, ptr %this, i64 32
  %3 = load i64, ptr %Position, align 8
  %Position7 = getelementptr inbounds i8, ptr %RHS, i64 32
  %4 = load i64, ptr %Position7, align 8
  %cmp8 = icmp eq i64 %3, %4
  br label %land.end

land.end:                                         ; preds = %land.lhs.true, %land.rhs, %if.end.i.i, %entry
  %5 = phi i1 [ false, %if.end.i.i ], [ false, %entry ], [ %cmp8, %land.rhs ], [ false, %land.lhs.true ]
  ret i1 %5
}